; Function Attrs: mustprogress nofree norecurse nosync nounwind willreturn memory(read, inaccessiblemem: none) uwtable
define dso_local { ptr, i64 } @_ZNK4node4quic6Packetcv10ngtcp2_vecEv(ptr nocapture noundef nonnull readonly align 8 dereferenceable(576) %this) local_unnamed_addr #5 align 2 {
entry:
  %data_ = getelementptr inbounds i8, ptr %this, i64 552
  %0 = load ptr, ptr %data_, align 8
  %cmp.i.not = icmp eq ptr %0, null
  br i1 %cmp.i.not, label %cond.end, label %cond.false

cond.false:                                       ; preds = %entry
  %data_.i = getelementptr inbounds i8, ptr %0, i64 8
  %buf_.i.i = getelementptr inbounds i8, ptr %0, i64 24
  %1 = load ptr, ptr %buf_.i.i, align 8
  %2 = load i64, ptr %data_.i, align 8
  br label %cond.end

cond.end:                                         ; preds = %entry, %cond.false
  %retval.sroa.0.0 = phi ptr [ %1, %cond.false ], [ null, %entry ]
  %retval.sroa.3.0 = phi i64 [ %2, %cond.false ], [ 0, %entry ]
  %.fca.0.insert = insertvalue { ptr, i64 } poison, ptr %retval.sroa.0.0, 0
  %.fca.1.insert = insertvalue { ptr, i64 } %.fca.0.insert, i64 %retval.sroa.3.0, 1
  ret { ptr, i64 } %.fca.1.insert
}